target datalayout = "e-m:e-p270:32:32-p271:32:32-p272:64:64-i64:64-i128:128-f80:128-n8:16:32:64-S128"
target triple = "x86_64-pc-linux-gnu"

%class.LIR_Opr = type { i64 }
%class.Instruction = type { ptr, i32, i32, i32, ptr, ptr, ptr, %class.LIR_Opr, i32, ptr, ptr, ptr, ptr }
%class.GrowableArrayBase = type { i32, i32 }
%class.GrowableArrayMetadata = type { i64 }
%class.ResourceBitMap = type { %class.GrowableBitMap }
%class.GrowableBitMap = type { %class.BitMap }
%class.BitMap = type { ptr, i64 }
%class.ValueType = type { ptr, i32, i32 }
%class.ValueVisitor = type { ptr }
%class.NullCheckVisitor = type { %class.InstructionVisitor, ptr }
%class.InstructionVisitor = type { ptr }
%class.NullCheckEliminator = type { %class.ValueVisitor, ptr, ptr, ptr, ptr, %class.GrowableArray.6, %class.NullCheckVisitor, ptr }
%class.GrowableArray.6 = type { %class.GrowableArrayWithAllocator.7, %class.GrowableArrayMetadata }
%class.GrowableArrayWithAllocator.7 = type { %class.GrowableArrayView.8 }
%class.GrowableArrayView.8 = type { %class.GrowableArrayBase, ptr }
%class.ValueSet = type { %class.ResourceBitMap }
%class.ObjectConstant = type { %class.ObjectType, ptr }
%class.ObjectType = type { %class.ValueType }

; Function Attrs: mustprogress nounwind uwtable
define linkonce_odr hidden noundef i64 @_ZN6BitMap23raw_to_words_align_downEm(i64 noundef %0) #1 comdat align 2 {
  %2 = alloca i64, align 8
  store i64 %0, ptr %2, align 8
  %3 = load i64, ptr %2, align 8
  %4 = lshr i64 %3, 6
  ret i64 %4
}

; Function Attrs: mustprogress nounwind uwtable
define linkonce_odr hidden void @_ZNK6BitMap12verify_limitEm(ptr noundef nonnull align 8 dereferenceable(16) %0, i64 noundef %1) #1 comdat align 2 {
  %3 = alloca ptr, align 8
  %4 = alloca i64, align 8
  store ptr %0, ptr %3, align 8
  store i64 %1, ptr %4, align 8
  ret void
}

; Function Attrs: mustprogress nounwind uwtable
define linkonce_odr hidden noundef i64 @_ZNK6BitMap19to_words_align_downEm(ptr noundef nonnull align 8 dereferenceable(16) %0, i64 noundef %1) #1 comdat align 2 {
  %3 = alloca ptr, align 8
  %4 = alloca i64, align 8
  store ptr %0, ptr %3, align 8
  store i64 %1, ptr %4, align 8
  %5 = load ptr, ptr %3, align 8
  %6 = load i64, ptr %4, align 8
  call void @_ZNK6BitMap12verify_limitEm(ptr noundef nonnull align 8 dereferenceable(16) %5, i64 noundef %6)
  %7 = load i64, ptr %4, align 8
  %8 = call noundef i64 @_ZN6BitMap23raw_to_words_align_downEm(i64 noundef %7)
  ret i64 %8
}

; Function Attrs: mustprogress nounwind uwtable
define linkonce_odr hidden noundef ptr @_ZN6BitMap3mapEv(ptr noundef nonnull align 8 dereferenceable(16) %0) #1 comdat align 2 {
  %2 = alloca ptr, align 8
  store ptr %0, ptr %2, align 8
  %3 = load ptr, ptr %2, align 8
  %4 = getelementptr inbounds %class.BitMap, ptr %3, i32 0, i32 0
  %5 = load ptr, ptr %4, align 8
  ret ptr %5
}

; Function Attrs: mustprogress nounwind uwtable
define linkonce_odr hidden noundef i64 @_ZN6BitMap11bit_in_wordEm(i64 noundef %0) #1 comdat align 2 {
  %2 = alloca i64, align 8
  store i64 %0, ptr %2, align 8
  %3 = load i64, ptr %2, align 8
  %4 = and i64 %3, 63
  ret i64 %4
}

; Function Attrs: mustprogress nounwind uwtable
define linkonce_odr hidden noundef ptr @_ZN6BitMap9word_addrEm(ptr noundef nonnull align 8 dereferenceable(16) %0, i64 noundef %1) #1 comdat align 2 {
  %3 = alloca ptr, align 8
  %4 = alloca i64, align 8
  store ptr %0, ptr %3, align 8
  store i64 %1, ptr %4, align 8
  %5 = load ptr, ptr %3, align 8
  %6 = call noundef ptr @_ZN6BitMap3mapEv(ptr noundef nonnull align 8 dereferenceable(16) %5)
  %7 = load i64, ptr %4, align 8
  %8 = call noundef i64 @_ZNK6BitMap19to_words_align_downEm(ptr noundef nonnull align 8 dereferenceable(16) %5, i64 noundef %7)
  %9 = getelementptr inbounds i64, ptr %6, i64 %8
  ret ptr %9
}

; Function Attrs: mustprogress nounwind uwtable
define linkonce_odr hidden noundef i64 @_ZN6BitMap8bit_maskEm(i64 noundef %0) #1 comdat align 2 {
  %2 = alloca i64, align 8
  store i64 %0, ptr %2, align 8
  %3 = load i64, ptr %2, align 8
  %4 = call noundef i64 @_ZN6BitMap11bit_in_wordEm(i64 noundef %3)
  %5 = shl i64 1, %4
  ret i64 %5
}

; Function Attrs: mustprogress nounwind uwtable
define linkonce_odr hidden void @_ZNK6BitMap12verify_indexEm(ptr noundef nonnull align 8 dereferenceable(16) %0, i64 noundef %1) #1 comdat align 2 {
  %3 = alloca ptr, align 8
  %4 = alloca i64, align 8
  store ptr %0, ptr %3, align 8
  store i64 %1, ptr %4, align 8
  ret void
}

; Function Attrs: mustprogress nounwind uwtable
define linkonce_odr hidden void @_ZN6BitMap7set_bitEm(ptr noundef nonnull align 8 dereferenceable(16) %0, i64 noundef %1) #1 comdat align 2 {
  %3 = alloca ptr, align 8
  %4 = alloca i64, align 8
  store ptr %0, ptr %3, align 8
  store i64 %1, ptr %4, align 8
  %5 = load ptr, ptr %3, align 8
  %6 = load i64, ptr %4, align 8
  call void @_ZNK6BitMap12verify_indexEm(ptr noundef nonnull align 8 dereferenceable(16) %5, i64 noundef %6)
  %7 = load i64, ptr %4, align 8
  %8 = call noundef i64 @_ZN6BitMap8bit_maskEm(i64 noundef %7)
  %9 = load i64, ptr %4, align 8
  %10 = call noundef ptr @_ZN6BitMap9word_addrEm(ptr noundef nonnull align 8 dereferenceable(16) %5, i64 noundef %9)
  %11 = load i64, ptr %10, align 8
  %12 = or i64 %11, %8
  store i64 %12, ptr %10, align 8
  ret void
}

; Function Attrs: mustprogress nounwind uwtable
define linkonce_odr hidden noundef i32 @_ZNK11Instruction2idEv(ptr noundef nonnull align 8 dereferenceable(96) %0) #1 comdat align 2 {
  %2 = alloca ptr, align 8
  store ptr %0, ptr %2, align 8
  %3 = load ptr, ptr %2, align 8
  %4 = getelementptr inbounds %class.Instruction, ptr %3, i32 0, i32 1
  %5 = load i32, ptr %4, align 8
  ret i32 %5
}

; Function Attrs: mustprogress nounwind uwtable
define linkonce_odr hidden void @_ZN8ValueSet3putEP11Instruction(ptr noundef nonnull align 8 dereferenceable(16) %0, ptr noundef %1) #1 comdat align 2 {
  %3 = alloca ptr, align 8
  %4 = alloca ptr, align 8
  store ptr %0, ptr %3, align 8
  store ptr %1, ptr %4, align 8
  %5 = load ptr, ptr %3, align 8
  %6 = getelementptr inbounds %class.ValueSet, ptr %5, i32 0, i32 0
  %7 = load ptr, ptr %4, align 8
  %8 = call noundef i32 @_ZNK11Instruction2idEv(ptr noundef nonnull align 8 dereferenceable(96) %7)
  %9 = sext i32 %8 to i64
  call void @_ZN6BitMap7set_bitEm(ptr noundef nonnull align 8 dereferenceable(16) %6, i64 noundef %9)
  ret void
}

; Function Attrs: mustprogress nounwind uwtable
define linkonce_odr hidden void @_ZN19NullCheckEliminator7set_putEP11Instruction(ptr noundef nonnull align 8 dereferenceable(88) %0, ptr noundef %1) #1 comdat align 2 {
  %3 = alloca ptr, align 8
  %4 = alloca ptr, align 8
  store ptr %0, ptr %3, align 8
  store ptr %1, ptr %4, align 8
  %5 = load ptr, ptr %3, align 8
  %6 = getelementptr inbounds %class.NullCheckEliminator, ptr %5, i32 0, i32 4
  %7 = load ptr, ptr %6, align 8
  %8 = load ptr, ptr %4, align 8
  call void @_ZN8ValueSet3putEP11Instruction(ptr noundef nonnull align 8 dereferenceable(16) %7, ptr noundef %8)
  ret void
}

; Function Attrs: mustprogress nounwind uwtable
define linkonce_odr hidden noundef ptr @_ZNK14ObjectConstant5valueEv(ptr noundef nonnull align 8 dereferenceable(24) %0) #1 comdat align 2 {
  %2 = alloca ptr, align 8
  store ptr %0, ptr %2, align 8
  %3 = load ptr, ptr %2, align 8
  %4 = getelementptr inbounds %class.ObjectConstant, ptr %3, i32 0, i32 1
  %5 = load ptr, ptr %4, align 8
  ret ptr %5
}

; Function Attrs: mustprogress nounwind uwtable
define linkonce_odr hidden noundef ptr @_ZNK11Instruction4typeEv(ptr noundef nonnull align 8 dereferenceable(96) %0) #1 comdat align 2 {
  %2 = alloca ptr, align 8
  store ptr %0, ptr %2, align 8
  %3 = load ptr, ptr %2, align 8
  %4 = getelementptr inbounds %class.Instruction, ptr %3, i32 0, i32 4
  %5 = load ptr, ptr %4, align 8
  ret ptr %5
}

; Function Attrs: mustprogress nounwind uwtable
define hidden void @_ZN19NullCheckEliminator15handle_ConstantEP8Constant(ptr noundef nonnull align 8 dereferenceable(88) %0, ptr noundef %1) #1 align 2 {
  %3 = alloca ptr, align 8
  %4 = alloca ptr, align 8
  %5 = alloca ptr, align 8
  %6 = alloca ptr, align 8
  store ptr %0, ptr %3, align 8
  store ptr %1, ptr %4, align 8
  %7 = load ptr, ptr %3, align 8
  %8 = load ptr, ptr %4, align 8
  %9 = call noundef ptr @_ZNK11Instruction4typeEv(ptr noundef nonnull align 8 dereferenceable(96) %8)
  %10 = load ptr, ptr %9, align 8
  %11 = getelementptr inbounds ptr, ptr %10, i64 9
  %12 = load ptr, ptr %11, align 8
  %13 = call noundef ptr %12(ptr noundef nonnull align 8 dereferenceable(16) %9)
  store ptr %13, ptr %5, align 8
  %14 = load ptr, ptr %5, align 8
  %15 = icmp ne ptr %14, null
  br i1 %15, label %16, label %37

16:                                               ; preds = %2
  %17 = load ptr, ptr %5, align 8
  %18 = call noundef zeroext i1 @_ZNK10ObjectType9is_loadedEv(ptr noundef nonnull align 8 dereferenceable(16) %17)
  br i1 %18, label %19, label %37

19:                                               ; preds = %16
  %20 = load ptr, ptr %5, align 8
  %21 = load ptr, ptr %20, align 8
  %22 = getelementptr inbounds ptr, ptr %21, i64 21
  %23 = load ptr, ptr %22, align 8
  %24 = call noundef ptr %23(ptr noundef nonnull align 8 dereferenceable(16) %20)
  store ptr %24, ptr %6, align 8
  %25 = load ptr, ptr %6, align 8
  %26 = icmp eq ptr %25, null
  br i1 %26, label %34, label %27

27:                                               ; preds = %19
  %28 = load ptr, ptr %6, align 8
  %29 = call noundef ptr @_ZNK14ObjectConstant5valueEv(ptr noundef nonnull align 8 dereferenceable(24) %28)
  %30 = load ptr, ptr %29, align 8
  %31 = getelementptr inbounds ptr, ptr %30, i64 5
  %32 = load ptr, ptr %31, align 8
  %33 = call noundef zeroext i1 %32(ptr noundef nonnull align 8 dereferenceable(40) %29)
  br i1 %33, label %36, label %34

34:                                               ; preds = %27, %19
  %35 = load ptr, ptr %4, align 8
  call void @_ZN19NullCheckEliminator7set_putEP11Instruction(ptr noundef nonnull align 8 dereferenceable(88) %7, ptr noundef %35)
  br label %36

36:                                               ; preds = %34, %27
  br label %37

37:                                               ; preds = %36, %16, %2
  ret void
}