; Function Attrs: mustprogress nounwind uwtable
define hidden void @_ZN19NullCheckEliminator15handle_ConstantEP8Constant(ptr nocapture noundef nonnull readonly align 8 dereferenceable(88) %0, ptr nocapture noundef readonly %1) local_unnamed_addr #1 align 2 {
  %3 = getelementptr inbounds i8, ptr %1, i64 24
  %4 = load ptr, ptr %3, align 8
  %5 = load ptr, ptr %4, align 8
  %6 = getelementptr inbounds i8, ptr %5, i64 72
  %7 = load ptr, ptr %6, align 8
  %8 = tail call noundef ptr %7(ptr noundef nonnull align 8 dereferenceable(16) %4) #14
  %.not = icmp eq ptr %8, null
  br i1 %.not, label %37, label %9

9:                                                ; preds = %2
  %10 = tail call noundef zeroext i1 @_ZNK10ObjectType9is_loadedEv(ptr noundef nonnull align 8 dereferenceable(16) %8) #14
  br i1 %10, label %11, label %37

11:                                               ; preds = %9
  %12 = load ptr, ptr %8, align 8
  %13 = getelementptr inbounds i8, ptr %12, i64 168
  %14 = load ptr, ptr %13, align 8
  %15 = tail call noundef ptr %14(ptr noundef nonnull align 8 dereferenceable(16) %8) #14
  %16 = icmp eq ptr %15, null
  br i1 %16, label %24, label %17

17:                                               ; preds = %11
  %18 = getelementptr inbounds i8, ptr %15, i64 16
  %19 = load ptr, ptr %18, align 8
  %20 = load ptr, ptr %19, align 8
  %21 = getelementptr inbounds i8, ptr %20, i64 40
  %22 = load ptr, ptr %21, align 8
  %23 = tail call noundef zeroext i1 %22(ptr noundef nonnull align 8 dereferenceable(40) %19) #14
  br i1 %23, label %37, label %24

24:                                               ; preds = %17, %11
  %25 = getelementptr inbounds i8, ptr %0, i64 32
  %26 = load ptr, ptr %25, align 8
  %27 = getelementptr inbounds i8, ptr %1, i64 8
  %28 = load i32, ptr %27, align 8
  %29 = sext i32 %28 to i64
  %30 = and i64 %29, 63
  %31 = shl nuw i64 1, %30
  %32 = load ptr, ptr %26, align 8
  %33 = lshr i64 %29, 6
  %34 = getelementptr inbounds i64, ptr %32, i64 %33
  %35 = load i64, ptr %34, align 8
  %36 = or i64 %31, %35
  store i64 %36, ptr %34, align 8
  br label %37

37:                                               ; preds = %17, %24, %9, %2
  ret void
}